target datalayout = "e-m:e-p270:32:32-p271:32:32-p272:64:64-i64:64-i128:128-f80:128-n8:16:32:64-S128"
target triple = "x86_64-pc-linux-gnu"

%"class.std::vector" = type { %"struct.std::_Vector_base" }
%"struct.std::_Vector_base" = type { %"struct.std::_Vector_base<gmx::RangePartitioning, std::allocator<gmx::RangePartitioning>>::_Vector_impl" }
%"struct.std::_Vector_base<gmx::RangePartitioning, std::allocator<gmx::RangePartitioning>>::_Vector_impl" = type { %"struct.std::_Vector_base<gmx::RangePartitioning, std::allocator<gmx::RangePartitioning>>::_Vector_impl_data" }
%"struct.std::_Vector_base<gmx::RangePartitioning, std::allocator<gmx::RangePartitioning>>::_Vector_impl_data" = type { ptr, ptr, ptr }
%"class.gmx::UpdateGroups" = type <{ i8, [7 x i8], %"class.std::vector", float, [4 x i8] }>

; Function Attrs: mustprogress nounwind uwtable
define linkonce_odr void @_ZNSt15__new_allocatorIN3gmx17RangePartitioningEEC2ERKS2_(ptr noundef nonnull align 1 dereferenceable(1) %0, ptr noundef nonnull align 1 dereferenceable(1) %1) unnamed_addr #2 comdat align 2 {
  %3 = alloca ptr, align 8
  %4 = alloca ptr, align 8
  store ptr %0, ptr %3, align 8, !tbaa !92
  store ptr %1, ptr %4, align 8, !tbaa !92
  ret void
}

; Function Attrs: mustprogress nounwind uwtable
define linkonce_odr void @_ZNSt12_Vector_baseIN3gmx17RangePartitioningESaIS1_EE17_Vector_impl_dataC2EOS4_(ptr noundef nonnull align 8 dereferenceable(24) %0, ptr noundef nonnull align 8 dereferenceable(24) %1) unnamed_addr #2 comdat align 2 {
  %3 = alloca ptr, align 8
  %4 = alloca ptr, align 8
  store ptr %0, ptr %3, align 8, !tbaa !90
  store ptr %1, ptr %4, align 8, !tbaa !90
  %5 = load ptr, ptr %3, align 8
  %6 = getelementptr inbounds nuw %"struct.std::_Vector_base<gmx::RangePartitioning, std::allocator<gmx::RangePartitioning>>::_Vector_impl_data", ptr %5, i32 0, i32 0
  %7 = load ptr, ptr %4, align 8, !tbaa !90
  %8 = getelementptr inbounds nuw %"struct.std::_Vector_base<gmx::RangePartitioning, std::allocator<gmx::RangePartitioning>>::_Vector_impl_data", ptr %7, i32 0, i32 0
  %9 = load ptr, ptr %8, align 8, !tbaa !83
  store ptr %9, ptr %6, align 8, !tbaa !83
  %10 = getelementptr inbounds nuw %"struct.std::_Vector_base<gmx::RangePartitioning, std::allocator<gmx::RangePartitioning>>::_Vector_impl_data", ptr %5, i32 0, i32 1
  %11 = load ptr, ptr %4, align 8, !tbaa !90
  %12 = getelementptr inbounds nuw %"struct.std::_Vector_base<gmx::RangePartitioning, std::allocator<gmx::RangePartitioning>>::_Vector_impl_data", ptr %11, i32 0, i32 1
  %13 = load ptr, ptr %12, align 8, !tbaa !78
  store ptr %13, ptr %10, align 8, !tbaa !78
  %14 = getelementptr inbounds nuw %"struct.std::_Vector_base<gmx::RangePartitioning, std::allocator<gmx::RangePartitioning>>::_Vector_impl_data", ptr %5, i32 0, i32 2
  %15 = load ptr, ptr %4, align 8, !tbaa !90
  %16 = getelementptr inbounds nuw %"struct.std::_Vector_base<gmx::RangePartitioning, std::allocator<gmx::RangePartitioning>>::_Vector_impl_data", ptr %15, i32 0, i32 2
  %17 = load ptr, ptr %16, align 8, !tbaa !80
  store ptr %17, ptr %14, align 8, !tbaa !80
  %18 = load ptr, ptr %4, align 8, !tbaa !90
  %19 = getelementptr inbounds nuw %"struct.std::_Vector_base<gmx::RangePartitioning, std::allocator<gmx::RangePartitioning>>::_Vector_impl_data", ptr %18, i32 0, i32 2
  store ptr null, ptr %19, align 8, !tbaa !80
  %20 = load ptr, ptr %4, align 8, !tbaa !90
  %21 = getelementptr inbounds nuw %"struct.std::_Vector_base<gmx::RangePartitioning, std::allocator<gmx::RangePartitioning>>::_Vector_impl_data", ptr %20, i32 0, i32 1
  store ptr null, ptr %21, align 8, !tbaa !78
  %22 = load ptr, ptr %4, align 8, !tbaa !90
  %23 = getelementptr inbounds nuw %"struct.std::_Vector_base<gmx::RangePartitioning, std::allocator<gmx::RangePartitioning>>::_Vector_impl_data", ptr %22, i32 0, i32 0
  store ptr null, ptr %23, align 8, !tbaa !83
  ret void
}

; Function Attrs: mustprogress nounwind uwtable
define linkonce_odr void @_ZNSaIN3gmx17RangePartitioningEEC2ERKS1_(ptr noundef nonnull align 1 dereferenceable(1) %0, ptr noundef nonnull align 1 dereferenceable(1) %1) unnamed_addr #2 comdat align 2 {
  %3 = alloca ptr, align 8
  %4 = alloca ptr, align 8
  store ptr %0, ptr %3, align 8, !tbaa !88
  store ptr %1, ptr %4, align 8, !tbaa !88
  %5 = load ptr, ptr %3, align 8
  %6 = load ptr, ptr %4, align 8, !tbaa !88
  call void @_ZNSt15__new_allocatorIN3gmx17RangePartitioningEEC2ERKS2_(ptr noundef nonnull align 1 dereferenceable(1) %5, ptr noundef nonnull align 1 dereferenceable(1) %6) #5
  ret void
}

; Function Attrs: mustprogress nounwind uwtable
define linkonce_odr void @_ZNSt12_Vector_baseIN3gmx17RangePartitioningESaIS1_EE12_Vector_implC2EOS4_(ptr noundef nonnull align 8 dereferenceable(24) %0, ptr noundef nonnull align 8 dereferenceable(24) %1) unnamed_addr #2 comdat align 2 {
  %3 = alloca ptr, align 8
  %4 = alloca ptr, align 8
  store ptr %0, ptr %3, align 8, !tbaa !86
  store ptr %1, ptr %4, align 8, !tbaa !86
  %5 = load ptr, ptr %3, align 8
  %6 = load ptr, ptr %4, align 8, !tbaa !86
  call void @_ZNSaIN3gmx17RangePartitioningEEC2ERKS1_(ptr noundef nonnull align 1 dereferenceable(1) %5, ptr noundef nonnull align 1 dereferenceable(1) %6) #5
  %7 = load ptr, ptr %4, align 8, !tbaa !86
  call void @_ZNSt12_Vector_baseIN3gmx17RangePartitioningESaIS1_EE17_Vector_impl_dataC2EOS4_(ptr noundef nonnull align 8 dereferenceable(24) %5, ptr noundef nonnull align 8 dereferenceable(24) %7) #5
  ret void
}

; Function Attrs: mustprogress nounwind uwtable
define linkonce_odr void @_ZNSt12_Vector_baseIN3gmx17RangePartitioningESaIS1_EEC2EOS3_(ptr noundef nonnull align 8 dereferenceable(24) %0, ptr noundef nonnull align 8 dereferenceable(24) %1) unnamed_addr #2 comdat align 2 {
  %3 = alloca ptr, align 8
  %4 = alloca ptr, align 8
  store ptr %0, ptr %3, align 8, !tbaa !84
  store ptr %1, ptr %4, align 8, !tbaa !84
  %5 = load ptr, ptr %3, align 8
  %6 = getelementptr inbounds nuw %"struct.std::_Vector_base", ptr %5, i32 0, i32 0
  %7 = load ptr, ptr %4, align 8, !tbaa !84
  %8 = getelementptr inbounds nuw %"struct.std::_Vector_base", ptr %7, i32 0, i32 0
  call void @_ZNSt12_Vector_baseIN3gmx17RangePartitioningESaIS1_EE12_Vector_implC2EOS4_(ptr noundef nonnull align 8 dereferenceable(24) %6, ptr noundef nonnull align 8 dereferenceable(24) %8) #5
  ret void
}

; Function Attrs: mustprogress nounwind uwtable
define linkonce_odr void @_ZNSt6vectorIN3gmx17RangePartitioningESaIS1_EEC2EOS3_(ptr noundef nonnull align 8 dereferenceable(24) %0, ptr noundef nonnull align 8 dereferenceable(24) %1) unnamed_addr #2 comdat align 2 {
  %3 = alloca ptr, align 8
  %4 = alloca ptr, align 8
  store ptr %0, ptr %3, align 8, !tbaa !42
  store ptr %1, ptr %4, align 8, !tbaa !42
  %5 = load ptr, ptr %3, align 8
  %6 = load ptr, ptr %4, align 8, !tbaa !42
  call void @_ZNSt12_Vector_baseIN3gmx17RangePartitioningESaIS1_EEC2EOS3_(ptr noundef nonnull align 8 dereferenceable(24) %5, ptr noundef nonnull align 8 dereferenceable(24) %6) #5
  ret void
}

; Function Attrs: mustprogress nounwind uwtable
define void @_ZN3gmx12UpdateGroupsC2EOSt6vectorINS_17RangePartitioningESaIS2_EEf(ptr noundef nonnull align 8 dereferenceable(36) %0, ptr noundef nonnull align 8 dereferenceable(24) %1, float noundef %2) unnamed_addr #2 align 2 {
  %4 = alloca ptr, align 8
  %5 = alloca ptr, align 8
  %6 = alloca float, align 4
  store ptr %0, ptr %4, align 8, !tbaa !497
  store ptr %1, ptr %5, align 8, !tbaa !42
  store float %2, ptr %6, align 4, !tbaa !112
  %7 = load ptr, ptr %4, align 8
  %8 = getelementptr inbounds nuw %"class.gmx::UpdateGroups", ptr %7, i32 0, i32 0
  store i8 1, ptr %8, align 8, !tbaa !499
  %9 = getelementptr inbounds nuw %"class.gmx::UpdateGroups", ptr %7, i32 0, i32 2
  %10 = load ptr, ptr %5, align 8, !tbaa !42
  call void @_ZNSt6vectorIN3gmx17RangePartitioningESaIS1_EEC2EOS3_(ptr noundef nonnull align 8 dereferenceable(24) %9, ptr noundef nonnull align 8 dereferenceable(24) %10) #5
  %11 = getelementptr inbounds nuw %"class.gmx::UpdateGroups", ptr %7, i32 0, i32 3
  %12 = load float, ptr %6, align 4, !tbaa !112
  store float %12, ptr %11, align 8, !tbaa !504
  ret void
}