; Function Attrs: mustprogress nofree norecurse nosync nounwind willreturn memory(argmem: readwrite) uwtable
define void @_ZN3gmx12UpdateGroupsC2EOSt6vectorINS_17RangePartitioningESaIS2_EEf(ptr noundef nonnull writeonly align 8 captures(none) dereferenceable(36) initializes((0, 1), (8, 36)) %0, ptr noundef nonnull align 8 captures(none) dereferenceable(24) %1, float noundef %2) unnamed_addr #17 align 2 {
  store i8 1, ptr %0, align 8, !tbaa !177
  %4 = getelementptr inbounds nuw i8, ptr %0, i64 8
  %5 = load ptr, ptr %1, align 8, !tbaa !108
  store ptr %5, ptr %4, align 8, !tbaa !108
  %6 = getelementptr inbounds nuw i8, ptr %0, i64 16
  %7 = getelementptr inbounds nuw i8, ptr %1, i64 8
  %8 = load ptr, ptr %7, align 8, !tbaa !102
  store ptr %8, ptr %6, align 8, !tbaa !102
  %9 = getelementptr inbounds nuw i8, ptr %0, i64 24
  %10 = getelementptr inbounds nuw i8, ptr %1, i64 16
  %11 = load ptr, ptr %10, align 8, !tbaa !105
  store ptr %11, ptr %9, align 8, !tbaa !105
  tail call void @llvm.memset.p0.i64(ptr noundef nonnull align 8 dereferenceable(24) %1, i8 0, i64 24, i1 false)
  %12 = getelementptr inbounds nuw i8, ptr %0, i64 32
  store float %2, ptr %12, align 8, !tbaa !182
  ret void
}